target datalayout = "e-m:e-p270:32:32-p271:32:32-p272:64:64-i64:64-i128:128-f80:128-n8:16:32:64-S128"
target triple = "x86_64-pc-linux-gnu"

%struct.PROV_CHACHA20_POLY1305_CTX = type { %struct.prov_cipher_ctx_st, %struct.PROV_CHACHA20_CTX, %struct.poly1305_context, [3 x i32], [16 x i8], [16 x i8], %struct.anon.1, i8, i64, i64, i64 }
%struct.prov_cipher_ctx_st = type { [16 x i8], [16 x i8], [16 x i8], ptr, %union.anon, i32, i64, i64, i64, i64, i32, i8, i32, ptr, i32, i64, i32, i64, i32, ptr, ptr, ptr }
%union.anon = type { ptr }
%struct.PROV_CHACHA20_CTX = type { %struct.prov_cipher_ctx_st, %union.anon.0, [4 x i32], [64 x i8], i32 }
%union.anon.0 = type { double, [24 x i8] }
%struct.poly1305_context = type { [24 x double], [4 x i32], [16 x i8], i64, %struct.anon }
%struct.anon = type { ptr, ptr }
%struct.anon.1 = type { i64, i64 }

@.str = private unnamed_addr constant [72 x i8] c"../openssl/providers/implementations/ciphers/cipher_chacha20_poly1305.c\00", align 1

; Function Attrs: nounwind uwtable
define internal ptr @chacha20_poly1305_dupctx(ptr noundef %0) #0 {
  %2 = alloca ptr, align 8
  %3 = alloca ptr, align 8
  %4 = alloca ptr, align 8
  %5 = alloca ptr, align 8
  %6 = alloca i32, align 4
  store ptr %0, ptr %3, align 8, !tbaa !3
  call void @llvm.lifetime.start.p0(i64 8, ptr %4) #5
  %7 = load ptr, ptr %3, align 8, !tbaa !3
  store ptr %7, ptr %4, align 8, !tbaa !3
  call void @llvm.lifetime.start.p0(i64 8, ptr %5) #5
  store ptr null, ptr %5, align 8, !tbaa !3
  %8 = load ptr, ptr %4, align 8, !tbaa !3
  %9 = icmp eq ptr %8, null
  br i1 %9, label %10, label %11

10:                                               ; preds = %1
  store ptr null, ptr %2, align 8
  store i32 1, ptr %6, align 4
  br label %51

11:                                               ; preds = %1
  %12 = load ptr, ptr %4, align 8, !tbaa !3
  %13 = call noalias ptr @CRYPTO_memdup(ptr noundef %12, i64 noundef 848, ptr noundef @.str, i32 noundef 69)
  store ptr %13, ptr %5, align 8, !tbaa !3
  %14 = load ptr, ptr %5, align 8, !tbaa !3
  %15 = icmp ne ptr %14, null
  br i1 %15, label %16, label %49

16:                                               ; preds = %11
  %17 = load ptr, ptr %5, align 8, !tbaa !3
  %18 = getelementptr inbounds nuw %struct.PROV_CHACHA20_POLY1305_CTX, ptr %17, i32 0, i32 0
  %19 = getelementptr inbounds nuw %struct.prov_cipher_ctx_st, ptr %18, i32 0, i32 13
  %20 = load ptr, ptr %19, align 8, !tbaa !19
  %21 = icmp ne ptr %20, null
  br i1 %21, label %22, label %49

22:                                               ; preds = %16
  %23 = load ptr, ptr %5, align 8, !tbaa !3
  %24 = getelementptr inbounds nuw %struct.PROV_CHACHA20_POLY1305_CTX, ptr %23, i32 0, i32 0
  %25 = getelementptr inbounds nuw %struct.prov_cipher_ctx_st, ptr %24, i32 0, i32 14
  %26 = load i32, ptr %25, align 8, !tbaa !20
  %27 = icmp ne i32 %26, 0
  br i1 %27, label %28, label %49

28:                                               ; preds = %22
  %29 = load ptr, ptr %5, align 8, !tbaa !3
  %30 = getelementptr inbounds nuw %struct.PROV_CHACHA20_POLY1305_CTX, ptr %29, i32 0, i32 0
  %31 = getelementptr inbounds nuw %struct.prov_cipher_ctx_st, ptr %30, i32 0, i32 13
  %32 = load ptr, ptr %31, align 8, !tbaa !19
  %33 = load ptr, ptr %5, align 8, !tbaa !3
  %34 = getelementptr inbounds nuw %struct.PROV_CHACHA20_POLY1305_CTX, ptr %33, i32 0, i32 0
  %35 = getelementptr inbounds nuw %struct.prov_cipher_ctx_st, ptr %34, i32 0, i32 15
  %36 = load i64, ptr %35, align 8, !tbaa !21
  %37 = call noalias ptr @CRYPTO_memdup(ptr noundef %32, i64 noundef %36, ptr noundef @.str, i32 noundef 72)
  %38 = load ptr, ptr %5, align 8, !tbaa !3
  %39 = getelementptr inbounds nuw %struct.PROV_CHACHA20_POLY1305_CTX, ptr %38, i32 0, i32 0
  %40 = getelementptr inbounds nuw %struct.prov_cipher_ctx_st, ptr %39, i32 0, i32 13
  store ptr %37, ptr %40, align 8, !tbaa !19
  %41 = load ptr, ptr %5, align 8, !tbaa !3
  %42 = getelementptr inbounds nuw %struct.PROV_CHACHA20_POLY1305_CTX, ptr %41, i32 0, i32 0
  %43 = getelementptr inbounds nuw %struct.prov_cipher_ctx_st, ptr %42, i32 0, i32 13
  %44 = load ptr, ptr %43, align 8, !tbaa !19
  %45 = icmp eq ptr %44, null
  br i1 %45, label %46, label %48

46:                                               ; preds = %28
  %47 = load ptr, ptr %5, align 8, !tbaa !3
  call void @CRYPTO_free(ptr noundef %47, ptr noundef @.str, i32 noundef 74)
  store ptr null, ptr %5, align 8, !tbaa !3
  br label %48

48:                                               ; preds = %46, %28
  br label %49

49:                                               ; preds = %48, %22, %16, %11
  %50 = load ptr, ptr %5, align 8, !tbaa !3
  store ptr %50, ptr %2, align 8
  store i32 1, ptr %6, align 4
  br label %51

51:                                               ; preds = %49, %10
  call void @llvm.lifetime.end.p0(i64 8, ptr %5) #5
  call void @llvm.lifetime.end.p0(i64 8, ptr %4) #5
  %52 = load ptr, ptr %2, align 8
  ret ptr %52
}