; Function Attrs: nounwind uwtable
define internal ptr @chacha20_poly1305_dupctx(ptr noundef %0) #0 {
  %2 = icmp eq ptr %0, null
  br i1 %2, label %17, label %3

3:                                                ; preds = %1
  %4 = tail call noalias ptr @CRYPTO_memdup(ptr noundef nonnull %0, i64 noundef 848, ptr noundef nonnull @.str, i32 noundef 69) #5
  %.not = icmp eq ptr %4, null
  br i1 %.not, label %17, label %5

5:                                                ; preds = %3
  %6 = getelementptr inbounds nuw i8, ptr %4, i64 120
  %7 = load ptr, ptr %6, align 8, !tbaa !18
  %.not17 = icmp eq ptr %7, null
  br i1 %.not17, label %17, label %8

8:                                                ; preds = %5
  %9 = getelementptr inbounds nuw i8, ptr %4, i64 128
  %10 = load i32, ptr %9, align 8, !tbaa !19
  %.not18 = icmp eq i32 %10, 0
  br i1 %.not18, label %17, label %11

11:                                               ; preds = %8
  %12 = getelementptr inbounds nuw i8, ptr %4, i64 136
  %13 = load i64, ptr %12, align 8, !tbaa !20
  %14 = tail call noalias ptr @CRYPTO_memdup(ptr noundef nonnull %7, i64 noundef %13, ptr noundef nonnull @.str, i32 noundef 72) #5
  store ptr %14, ptr %6, align 8, !tbaa !18
  %15 = icmp eq ptr %14, null
  br i1 %15, label %16, label %17

16:                                               ; preds = %11
  tail call void @CRYPTO_free(ptr noundef nonnull %4, ptr noundef nonnull @.str, i32 noundef 74) #5
  br label %17

17:                                               ; preds = %3, %5, %8, %16, %11, %1
  %.013 = phi ptr [ null, %1 ], [ null, %16 ], [ %4, %11 ], [ %4, %8 ], [ %4, %5 ], [ null, %3 ]
  ret ptr %.013
}